Certificate:
    Data:
        Version: 3 (0x2)
        Serial Number:
            96:f1:f5:b8:7a:ca:69:c9
        Signature Algorithm: sha1WithRSAEncryption
        Issuer: C=CN, ST=Shanghai, L=Shanghai, O=Derbysoft, OU=Derbysoft, CN=Derbysoft/emailAddress=Shanghai
        Validity
            Not Before: Apr 11 06:51:47 2013 GMT
            Not After : Apr 11 06:51:48 2014 GMT
        Subject: C=CN, ST=Shanghai, O=Derbysoft, OU=Derbysoft, CN=Derbysoft/emailAddress=Shanghai
        Subject Public Key Info:
            Public Key Algorithm: rsaEncryption
            RSA Public Key: (1024 bit)
                Modulus (1024 bit):
                    00:be:47:1d:40:d7:3d:c5:e7:ac:96:6c:36:83:77:
                    65:13:b9:1f:80:91:06:6e:5b:80:89:2c:fa:26:91:
                    0c:86:f6:e6:d0:93:5c:fa:75:28:88:19:de:c4:89:
                    6d:93:be:8a:2c:c7:99:cb:ae:0d:24:aa:f8:1b:11:
                    8d:d0:3c:86:47:c0:82:1e:da:2e:7f:85:c6:4c:97:
                    05:c0:c8:43:89:d3:8a:d5:1b:06:8f:a6:1a:07:45:
                    cf:f9:08:32:2a:12:3f:c4:ac:62:ed:1e:c0:27:cd:
                    9e:6b:06:10:6a:61:65:60:a8:be:44:b1:ec:b9:56:
                    e9:6c:eb:3e:28:5a:cd:de:51
                Exponent: 65537 (0x10001)
        X509v3 extensions:
            X509v3 Basic Constraints: 
                CA:FALSE
            Netscape Comment: 
                OpenSSL Generated Certificate
            X509v3 Subject Key Identifier: 
                11:48:05:9F:CF:1E:1F:39:DB:AD:49:D0:9F:0D:05:3D:E7:01:CF:44
            X509v3 Authority Key Identifier: 
                keyid:7D:32:DA:D4:4D:BD:80:C5:55:87:AC:B7:0D:B6:E6:24:BF:F6:E1:CE

    Signature Algorithm: sha1WithRSAEncryption
        03:7e:e7:fb:4b:bb:f6:99:d6:58:3c:7d:89:22:bc:7d:84:12:
        08:36:76:bf:53:0d:b7:29:a2:7f:a8:71:1b:f7:c8:1d:b9:cc:
        9b:60:30:7a:9a:42:29:fe:2e:3b:1b:e7:6d:2a:1f:88:48:25:
        e9:6e:72:5c:3a:98:ec:0e:dd:8c:12:e4:e5:89:05:8a:87:9b:
        22:a4:a4:90:e0:82:c6:b3:1e:47:0f:a5:a0:0a:be:65:00:a1:
        4a:6f:43:b9:e5:fc:19:a4:8b:06:5c:f3:c9:df:01:cb:4d:e7:
        7f:ac:73:71:7d:d1:cd:ea:0b:ce:1a:4a:c2:fc:21:d0:6d:06:
        c4:f7
-----BEGIN CERTIFICATE-----
MIIC9zCCAmCgAwIBAgIJAJbx9bh6ymnJMA0GCSqGSIb3DQEBBQUAMIGIMQswCQYD
VQQGEwJDTjERMA8GA1UECBMIU2hhbmdoYWkxETAPBgNVBAcTCFNoYW5naGFpMRIw
EAYDVQQKEwlEZXJieXNvZnQxEjAQBgNVBAsTCURlcmJ5c29mdDESMBAGA1UEAxMJ
RGVyYnlzb2Z0MRcwFQYJKoZIhvcNAQkBFghTaGFuZ2hhaTAeFw0xMzA0MTEwNjUx
NDdaFw0xNDA0MTEwNjUxNDhaMHUxCzAJBgNVBAYTAkNOMREwDwYDVQQIEwhTaGFu
Z2hhaTESMBAGA1UEChMJRGVyYnlzb2Z0MRIwEAYDVQQLEwlEZXJieXNvZnQxEjAQ
BgNVBAMTCURlcmJ5c29mdDEXMBUGCSqGSIb3DQEJARYIU2hhbmdoYWkwgZ8wDQYJ
KoZIhvcNAQEBBQADgY0AMIGJAoGBAL5HHUDXPcXnrJZsNoN3ZRO5H4CRBm5bgIks
+iaRDIb25tCTXPp1KIgZ3sSJbZO+iizHmcuuDSSq+BsRjdA8hkfAgh7aLn+FxkyX
BcDIQ4nTitUbBo+mGgdFz/kIMioSP8SsYu0ewCfNnmsGEGphZWCovkSx7LlW6Wzr
Pihazd5RAgMBAAGjezB5MAkGA1UdEwQCMAAwLAYJYIZIAYb4QgENBB8WHU9wZW5T
U0wgR2VuZXJhdGVkIENlcnRpZmljYXRlMB0GA1UdDgQWBBQRSAWfzx4fOdutSdCf
DQU95wHPRDAfBgNVHSMEGDAWgBR9MtrUTb2AxVWHrLcNtuYkv/bhzjANBgkqhkiG
9w0BAQUFAAOBgQADfuf7S7v2mdZYPH2JIrx9hBIINna/Uw23KaJ/qHEb98gducyb
YDB6mkIp/i47G+dtKh+ISCXpbnJcOpjsDt2MEuTliQWKh5sipKSQ4ILGsx5HD6Wg
Cr5lAKFKb0O55fwZpIsGXPPJ3wHLTed/rHNxfdHN6gvOGkrC/CHQbQbE9w==
-----END CERTIFICATE-----
