Certificate:
    Data:
        Version: 3 (0x2)
        Serial Number:
            a2:8c:64:61:aa:16:37:6d
        Signature Algorithm: sha1WithRSAEncryption
        Issuer: C=CN, ST=ShangHai, O=Derbysoft, OU=Derbysoft, CN=Derbysoft/emailAddress=zhupan@derbysoft.com
        Validity
            Not Before: Apr 16 07:51:47 2013 GMT
            Not After : Apr 15 07:51:47 2016 GMT
        Subject: C=CN, ST=ShangHai, O=Derbysoft, OU=Derbysoft, CN=Derbysoft/emailAddress=zhupan@derbysoft.com
        Subject Public Key Info:
            Public Key Algorithm: rsaEncryption
            RSA Public Key: (1024 bit)
                Modulus (1024 bit):
                    00:e0:97:b1:d0:f6:15:45:ae:37:f1:03:9f:39:f9:
                    f1:08:9e:28:3f:b5:f4:3e:4f:4a:45:32:ae:c7:17:
                    39:7d:03:e7:ac:93:06:9f:f1:e6:de:b3:7a:26:c2:
                    59:2a:96:64:4a:35:c3:45:45:3a:ef:ea:8e:b0:9a:
                    90:ec:76:e9:d0:f2:48:73:b5:f0:47:3a:2c:70:d2:
                    3c:97:8c:b5:43:e7:c9:d8:d8:bb:33:81:46:c8:45:
                    12:91:f9:72:3e:38:fb:29:c1:57:22:54:fd:fe:4e:
                    f5:f8:ef:a2:eb:f6:b8:d4:77:dc:44:fb:03:b4:db:
                    75:0a:3f:4d:39:e0:4d:fa:59
                Exponent: 65537 (0x10001)
        X509v3 extensions:
            X509v3 Subject Key Identifier: 
                03:6A:C0:18:6D:89:10:F8:AE:25:33:27:A3:F5:A0:7D:42:E1:0F:FE
            X509v3 Authority Key Identifier: 
                keyid:03:6A:C0:18:6D:89:10:F8:AE:25:33:27:A3:F5:A0:7D:42:E1:0F:FE
                DirName:/C=CN/ST=ShangHai/O=Derbysoft/OU=Derbysoft/CN=Derbysoft/emailAddress=zhupan@derbysoft.com
                serial:A2:8C:64:61:AA:16:37:6D

            X509v3 Basic Constraints: 
                CA:TRUE
    Signature Algorithm: sha1WithRSAEncryption
        7e:d2:34:61:a8:13:b6:85:72:23:fc:d2:7c:25:88:e9:79:7c:
        2e:76:b2:ac:7a:a7:f8:0b:86:e5:ef:60:a5:69:60:6a:24:a5:
        a2:54:5a:a5:16:20:98:dc:17:24:97:26:a5:f7:66:62:90:54:
        81:6d:6c:a2:1a:bb:c3:1f:69:a1:55:9e:59:f7:da:8b:84:6f:
        98:bf:3b:a1:36:48:47:15:31:b9:af:27:4a:32:3e:a7:72:dc:
        ec:b2:e0:55:b6:74:fa:b8:30:80:81:29:c8:0e:60:4e:59:a5:
        d7:4e:9c:69:29:46:75:78:4a:15:cf:93:c6:40:67:d7:34:51:
        a0:ad
-----BEGIN CERTIFICATE-----
MIIDbDCCAtWgAwIBAgIJAKKMZGGqFjdtMA0GCSqGSIb3DQEBBQUAMIGBMQswCQYD
VQQGEwJDTjERMA8GA1UECBMIU2hhbmdIYWkxEjAQBgNVBAoTCURlcmJ5c29mdDES
MBAGA1UECxMJRGVyYnlzb2Z0MRIwEAYDVQQDEwlEZXJieXNvZnQxIzAhBgkqhkiG
9w0BCQEWFHpodXBhbkBkZXJieXNvZnQuY29tMB4XDTEzMDQxNjA3NTE0N1oXDTE2
MDQxNTA3NTE0N1owgYExCzAJBgNVBAYTAkNOMREwDwYDVQQIEwhTaGFuZ0hhaTES
MBAGA1UEChMJRGVyYnlzb2Z0MRIwEAYDVQQLEwlEZXJieXNvZnQxEjAQBgNVBAMT
CURlcmJ5c29mdDEjMCEGCSqGSIb3DQEJARYUemh1cGFuQGRlcmJ5c29mdC5jb20w
gZ8wDQYJKoZIhvcNAQEBBQADgY0AMIGJAoGBAOCXsdD2FUWuN/EDnzn58QieKD+1
9D5PSkUyrscXOX0D56yTBp/x5t6zeibCWSqWZEo1w0VFOu/qjrCakOx26dDySHO1
8Ec6LHDSPJeMtUPnydjYuzOBRshFEpH5cj44+ynBVyJU/f5O9fjvouv2uNR33ET7
A7TbdQo/TTngTfpZAgMBAAGjgekwgeYwHQYDVR0OBBYEFANqwBhtiRD4riUzJ6P1
oH1C4Q/+MIG2BgNVHSMEga4wgauAFANqwBhtiRD4riUzJ6P1oH1C4Q/+oYGHpIGE
MIGBMQswCQYDVQQGEwJDTjERMA8GA1UECBMIU2hhbmdIYWkxEjAQBgNVBAoTCURl
cmJ5c29mdDESMBAGA1UECxMJRGVyYnlzb2Z0MRIwEAYDVQQDEwlEZXJieXNvZnQx
IzAhBgkqhkiG9w0BCQEWFHpodXBhbkBkZXJieXNvZnQuY29tggkAooxkYaoWN20w
DAYDVR0TBAUwAwEB/zANBgkqhkiG9w0BAQUFAAOBgQB+0jRhqBO2hXIj/NJ8JYjp
eXwudrKseqf4C4bl72ClaWBqJKWiVFqlFiCY3Bcklyal92ZikFSBbWyiGrvDH2mh
VZ5Z99qLhG+YvzuhNkhHFTG5rydKMj6nctzssuBVtnT6uDCAgSnIDmBOWaXXTpxp
KUZ1eEoVz5PGQGfXNFGgrQ==
-----END CERTIFICATE-----
