Certificate:
    Data:
        Version: 3 (0x2)
        Serial Number:
            a2:8c:64:61:aa:16:37:6e
        Signature Algorithm: sha1WithRSAEncryption
        Issuer: C=CN, ST=ShangHai, L=ShangHai, O=Derbysoft, OU=Derbysoft, CN=Derbysoft/emailAddress=zhupan@derbysoft.com
        Validity
            Not Before: Apr 16 08:06:39 2013 GMT
            Not After : Apr 16 08:06:39 2014 GMT
        Subject: C=CN, ST=ShangHai, O=Derbysoft, OU=Derbysoft, CN=Derbysoft/emailAddress=zhupan@derbysoft.com
        Subject Public Key Info:
            Public Key Algorithm: rsaEncryption
            RSA Public Key: (1024 bit)
                Modulus (1024 bit):
                    00:f6:93:e6:22:50:0c:a1:60:be:14:a8:e3:1d:a6:
                    fe:41:1b:95:3c:48:55:66:91:43:b7:00:99:0f:97:
                    e6:dd:be:72:cc:4e:ba:11:fe:72:13:dd:1d:a1:67:
                    05:48:b1:54:48:bc:17:d0:78:3c:0b:85:41:f0:6b:
                    86:a7:60:bd:0f:17:c8:0f:23:21:d0:47:2f:4b:9e:
                    7e:6f:30:1a:d8:be:22:0d:79:db:56:7a:9c:e7:c3:
                    88:e4:87:b6:9e:fa:ce:d1:85:5b:0f:0d:a5:6a:63:
                    cd:b1:d4:43:0d:4f:9b:a6:f7:e8:eb:6e:f7:91:f3:
                    6e:21:c3:91:64:ac:88:f6:9b
                Exponent: 65537 (0x10001)
        X509v3 extensions:
            X509v3 Basic Constraints: 
                CA:FALSE
            Netscape Comment: 
                OpenSSL Generated Certificate
            X509v3 Subject Key Identifier: 
                70:42:6F:15:8A:4E:56:21:27:12:EC:A0:C5:FB:49:8C:C9:38:6C:41
            X509v3 Authority Key Identifier: 
                keyid:FF:D0:09:59:37:B2:DF:A3:A2:9C:0D:F6:8C:02:92:5D:C0:49:53:75

    Signature Algorithm: sha1WithRSAEncryption
        6b:2c:cb:cb:81:9b:38:4e:2a:e4:cc:61:ac:d5:58:a7:61:cb:
        4b:44:eb:68:f3:d9:34:1e:b4:a7:9d:77:81:bb:db:f8:8a:c0:
        85:58:d2:12:fe:f3:09:01:40:9a:d3:54:21:40:1c:3c:fa:e9:
        e6:02:ee:7c:18:ee:a4:ec:a9:fa:f4:ff:ad:51:07:8e:8f:ae:
        95:14:0e:88:44:93:3a:af:7b:dd:91:53:24:cc:40:f3:6e:1e:
        32:68:6f:b3:42:c2:08:22:fb:b6:24:7f:d2:9d:e7:8b:a2:43:
        98:a8:b9:09:91:85:0d:a0:95:e6:98:0d:ea:3d:c3:f4:3a:12:
        5b:58
-----BEGIN CERTIFICATE-----
MIIDEDCCAnmgAwIBAgIJAKKMZGGqFjduMA0GCSqGSIb3DQEBBQUAMIGUMQswCQYD
VQQGEwJDTjERMA8GA1UECBMIU2hhbmdIYWkxETAPBgNVBAcTCFNoYW5nSGFpMRIw
EAYDVQQKEwlEZXJieXNvZnQxEjAQBgNVBAsTCURlcmJ5c29mdDESMBAGA1UEAxMJ
RGVyYnlzb2Z0MSMwIQYJKoZIhvcNAQkBFhR6aHVwYW5AZGVyYnlzb2Z0LmNvbTAe
Fw0xMzA0MTYwODA2MzlaFw0xNDA0MTYwODA2MzlaMIGBMQswCQYDVQQGEwJDTjER
MA8GA1UECBMIU2hhbmdIYWkxEjAQBgNVBAoTCURlcmJ5c29mdDESMBAGA1UECxMJ
RGVyYnlzb2Z0MRIwEAYDVQQDEwlEZXJieXNvZnQxIzAhBgkqhkiG9w0BCQEWFHpo
dXBhbkBkZXJieXNvZnQuY29tMIGfMA0GCSqGSIb3DQEBAQUAA4GNADCBiQKBgQD2
k+YiUAyhYL4UqOMdpv5BG5U8SFVmkUO3AJkPl+bdvnLMTroR/nIT3R2hZwVIsVRI
vBfQeDwLhUHwa4anYL0PF8gPIyHQRy9Lnn5vMBrYviINedtWepznw4jkh7ae+s7R
hVsPDaVqY82x1EMNT5um9+jrbveR824hw5FkrIj2mwIDAQABo3sweTAJBgNVHRME
AjAAMCwGCWCGSAGG+EIBDQQfFh1PcGVuU1NMIEdlbmVyYXRlZCBDZXJ0aWZpY2F0
ZTAdBgNVHQ4EFgQUcEJvFYpOViEnEuygxftJjMk4bEEwHwYDVR0jBBgwFoAU/9AJ
WTey36OinA32jAKSXcBJU3UwDQYJKoZIhvcNAQEFBQADgYEAayzLy4GbOE4q5Mxh
rNVYp2HLS0TraPPZNB60p513gbvb+IrAhVjSEv7zCQFAmtNUIUAcPPrp5gLufBju
pOyp+vT/rVEHjo+ulRQOiESTOq973ZFTJMxA824eMmhvs0LCCCL7tiR/0p3ni6JD
mKi5CZGFDaCV5pgN6j3D9DoSW1g=
-----END CERTIFICATE-----
