Certificate:
    Data:
        Version: 3 (0x2)
        Serial Number:
            a2:8c:64:61:aa:16:37:6f
        Signature Algorithm: sha1WithRSAEncryption
        Issuer: C=CN, ST=ShangHai, L=ShangHai, O=Derbysoft, OU=Derbysoft, CN=Derbysoft/emailAddress=zhupan@derbysoft.com
        Validity
            Not Before: Apr 16 08:07:07 2013 GMT
            Not After : Apr 16 08:07:07 2014 GMT
        Subject: C=CN, ST=ShangHai, O=Derbysoft, OU=Derbysoft, CN=Derbysoft/emailAddress=zhupan@derbysoft.com
        Subject Public Key Info:
            Public Key Algorithm: rsaEncryption
            RSA Public Key: (1024 bit)
                Modulus (1024 bit):
                    00:a3:d5:56:d7:31:69:39:74:a1:22:0c:69:52:a6:
                    3f:1c:2e:f0:ce:0f:af:48:70:00:66:48:a3:10:d1:
                    ea:d4:cc:93:cc:d4:5c:61:c3:24:e4:db:86:9a:f4:
                    92:93:c5:78:e0:f6:e3:1f:e8:49:8b:81:e3:73:3b:
                    ea:ba:ff:26:34:12:92:b6:5f:be:3c:e9:83:a5:fb:
                    d3:f0:3b:9d:2b:71:b6:91:40:27:2b:69:57:6c:f9:
                    55:fb:c5:45:c0:db:4f:fd:09:a3:a9:bf:b2:2d:21:
                    64:94:9e:ba:6a:4c:bb:62:e1:20:08:0f:3d:13:c2:
                    c9:d8:1e:58:72:97:bb:a9:b1
                Exponent: 65537 (0x10001)
        X509v3 extensions:
            X509v3 Basic Constraints: 
                CA:FALSE
            Netscape Comment: 
                OpenSSL Generated Certificate
            X509v3 Subject Key Identifier: 
                BE:C7:5F:3B:C4:6B:C9:32:CC:34:47:85:A2:22:E7:09:BC:56:3C:A1
            X509v3 Authority Key Identifier: 
                keyid:FF:D0:09:59:37:B2:DF:A3:A2:9C:0D:F6:8C:02:92:5D:C0:49:53:75

    Signature Algorithm: sha1WithRSAEncryption
        1d:bc:2f:d1:73:9c:a3:a7:96:7f:3e:07:1b:d1:50:27:17:a6:
        13:ef:38:ee:a6:b4:4d:84:de:39:3a:06:2a:18:a6:01:17:66:
        f5:7c:07:2b:5a:8e:ec:4f:50:7e:24:7f:e4:77:52:42:a0:43:
        0e:bd:9b:77:fe:f7:31:2f:86:63:a0:f5:0f:d4:a2:59:78:a5:
        2c:41:cb:a0:38:8e:78:f7:42:36:36:d6:c5:a8:7a:4d:65:ef:
        99:94:88:73:35:6b:5b:8e:05:34:71:b3:70:8c:a7:3f:58:db:
        c9:5c:e7:ab:a5:52:96:6a:bd:b4:c7:1b:19:bd:57:80:d4:81:
        7b:77
-----BEGIN CERTIFICATE-----
MIIDEDCCAnmgAwIBAgIJAKKMZGGqFjdvMA0GCSqGSIb3DQEBBQUAMIGUMQswCQYD
VQQGEwJDTjERMA8GA1UECBMIU2hhbmdIYWkxETAPBgNVBAcTCFNoYW5nSGFpMRIw
EAYDVQQKEwlEZXJieXNvZnQxEjAQBgNVBAsTCURlcmJ5c29mdDESMBAGA1UEAxMJ
RGVyYnlzb2Z0MSMwIQYJKoZIhvcNAQkBFhR6aHVwYW5AZGVyYnlzb2Z0LmNvbTAe
Fw0xMzA0MTYwODA3MDdaFw0xNDA0MTYwODA3MDdaMIGBMQswCQYDVQQGEwJDTjER
MA8GA1UECBMIU2hhbmdIYWkxEjAQBgNVBAoTCURlcmJ5c29mdDESMBAGA1UECxMJ
RGVyYnlzb2Z0MRIwEAYDVQQDEwlEZXJieXNvZnQxIzAhBgkqhkiG9w0BCQEWFHpo
dXBhbkBkZXJieXNvZnQuY29tMIGfMA0GCSqGSIb3DQEBAQUAA4GNADCBiQKBgQCj
1VbXMWk5dKEiDGlSpj8cLvDOD69IcABmSKMQ0erUzJPM1FxhwyTk24aa9JKTxXjg
9uMf6EmLgeNzO+q6/yY0EpK2X7486YOl+9PwO50rcbaRQCcraVds+VX7xUXA20/9
CaOpv7ItIWSUnrpqTLti4SAIDz0TwsnYHlhyl7upsQIDAQABo3sweTAJBgNVHRME
AjAAMCwGCWCGSAGG+EIBDQQfFh1PcGVuU1NMIEdlbmVyYXRlZCBDZXJ0aWZpY2F0
ZTAdBgNVHQ4EFgQUvsdfO8RryTLMNEeFoiLnCbxWPKEwHwYDVR0jBBgwFoAU/9AJ
WTey36OinA32jAKSXcBJU3UwDQYJKoZIhvcNAQEFBQADgYEAHbwv0XOco6eWfz4H
G9FQJxemE+847qa0TYTeOToGKhimARdm9XwHK1qO7E9QfiR/5HdSQqBDDr2bd/73
MS+GY6D1D9SiWXilLEHLoDiOePdCNjbWxah6TWXvmZSIczVrW44FNHGzcIynP1jb
yVznq6VSlmq9tMcbGb1XgNSBe3c=
-----END CERTIFICATE-----
